; ModuleID = 'source-C-CXX/51/5027.cpp'
source_filename = "source-C-CXX/51/5027.cpp"
target datalayout = "e-m:e-p270:32:32-p271:32:32-p272:64:64-i64:64-f80:128-n8:16:32:64-S128"
target triple = "x86_64-pc-linux-gnu"

%"class.std::ios_base::Init" = type { i8 }
%"class.std::basic_istream" = type { i32 (...)**, i64, %"class.std::basic_ios" }
%"class.std::basic_ios" = type { %"class.std::ios_base", %"class.std::basic_ostream"*, i8, i8, %"class.std::basic_streambuf"*, %"class.std::ctype"*, %"class.std::num_put"*, %"class.std::num_get"* }
%"class.std::ios_base" = type { i32 (...)**, i64, i64, i32, i32, i32, %"struct.std::ios_base::_Callback_list"*, %"struct.std::ios_base::_Words", [8 x %"struct.std::ios_base::_Words"], i32, %"struct.std::ios_base::_Words"*, %"class.std::locale" }
%"struct.std::ios_base::_Callback_list" = type { %"struct.std::ios_base::_Callback_list"*, void (i32, %"class.std::ios_base"*, i32)*, i32, i32 }
%"struct.std::ios_base::_Words" = type { i8*, i64 }
%"class.std::locale" = type { %"class.std::locale::_Impl"* }
%"class.std::locale::_Impl" = type { i32, %"class.std::locale::facet"**, i64, %"class.std::locale::facet"**, i8** }
%"class.std::locale::facet" = type <{ i32 (...)**, i32, [4 x i8] }>
%"class.std::basic_ostream" = type { i32 (...)**, %"class.std::basic_ios" }
%"class.std::basic_streambuf" = type { i32 (...)**, i8*, i8*, i8*, i8*, i8*, i8*, %"class.std::locale" }
%"class.std::ctype" = type <{ %"class.std::locale::facet.base", [4 x i8], %struct.__locale_struct*, i8, [7 x i8], i32*, i32*, i16*, i8, [256 x i8], [256 x i8], i8, [6 x i8] }>
%"class.std::locale::facet.base" = type <{ i32 (...)**, i32 }>
%struct.__locale_struct = type { [13 x %struct.__locale_data*], i16*, i32*, i32*, [13 x i8*] }
%struct.__locale_data = type opaque
%"class.std::num_put" = type { %"class.std::locale::facet.base", [4 x i8] }
%"class.std::num_get" = type { %"class.std::locale::facet.base", [4 x i8] }

@_ZStL8__ioinit = internal global %"class.std::ios_base::Init" zeroinitializer, align 1
@__dso_handle = external hidden global i8
@_ZSt3cin = external global %"class.std::basic_istream", align 8
@_ZSt4cout = external global %"class.std::basic_ostream", align 8
@.str = private unnamed_addr constant [2 x i8] c" \00", align 1
@llvm.global_ctors = appending global [1 x { i32, void ()*, i8* }] [{ i32, void ()*, i8* } { i32 65535, void ()* @_GLOBAL__sub_I_5027.cpp, i8* null }]

declare void @_ZNSt8ios_base4InitC1Ev(%"class.std::ios_base::Init"* nonnull align 1 dereferenceable(1)) unnamed_addr #0

; Function Attrs: nounwind
declare void @_ZNSt8ios_base4InitD1Ev(%"class.std::ios_base::Init"* nonnull align 1 dereferenceable(1)) unnamed_addr #1

; Function Attrs: nofree nounwind
declare i32 @__cxa_atexit(void (i8*)*, i8*, i8*) local_unnamed_addr #2

; Function Attrs: mustprogress norecurse sspstrong uwtable
define dso_local i32 @main() local_unnamed_addr #3 {
  %1 = alloca i32, align 4
  %2 = alloca i32, align 4
  %3 = alloca [100 x i32], align 16
  %4 = bitcast i32* %1 to i8*
  call void @llvm.lifetime.start.p0i8(i64 4, i8* nonnull %4) #7
  %5 = bitcast i32* %2 to i8*
  call void @llvm.lifetime.start.p0i8(i64 4, i8* nonnull %5) #7
  %6 = bitcast [100 x i32]* %3 to i8*
  call void @llvm.lifetime.start.p0i8(i64 400, i8* nonnull %6) #7
  %7 = call nonnull align 8 dereferenceable(16) %"class.std::basic_istream"* @_ZNSirsERi(%"class.std::basic_istream"* nonnull align 8 dereferenceable(16) @_ZSt3cin, i32* nonnull align 4 dereferenceable(4) %2)
  %8 = call nonnull align 8 dereferenceable(16) %"class.std::basic_istream"* @_ZNSirsERi(%"class.std::basic_istream"* nonnull align 8 dereferenceable(16) %7, i32* nonnull align 4 dereferenceable(4) %1)
  %9 = load i32, i32* %2, align 4, !tbaa !5
  %10 = icmp slt i32 %9, 1
  br i1 %10, label %19, label %11

11:                                               ; preds = %0, %11
  %12 = phi i64 [ %15, %11 ], [ 1, %0 ]
  %13 = getelementptr inbounds [100 x i32], [100 x i32]* %3, i64 0, i64 %12
  %14 = call nonnull align 8 dereferenceable(16) %"class.std::basic_istream"* @_ZNSirsERi(%"class.std::basic_istream"* nonnull align 8 dereferenceable(16) @_ZSt3cin, i32* nonnull align 4 dereferenceable(4) %13)
  %15 = add nuw nsw i64 %12, 1
  %16 = load i32, i32* %2, align 4, !tbaa !5
  %17 = sext i32 %16 to i64
  %18 = icmp slt i64 %12, %17
  br i1 %18, label %11, label %19, !llvm.loop !9

19:                                               ; preds = %11, %0
  %20 = phi i32 [ %9, %0 ], [ %16, %11 ]
  %21 = load i32, i32* %1, align 4, !tbaa !5
  %22 = sub i32 %20, %21
  %23 = icmp sgt i32 %22, 0
  %24 = icmp sgt i32 %21, 0
  %25 = and i1 %23, %24
  br i1 %25, label %26, label %77

26:                                               ; preds = %19
  %27 = zext i32 %22 to i64
  %28 = zext i32 %21 to i64
  %29 = add nsw i64 %28, -1
  %30 = and i64 %28, 3
  %31 = icmp ult i64 %29, 3
  %32 = and i64 %28, 4294967292
  %33 = icmp eq i64 %30, 0
  br label %34

34:                                               ; preds = %26, %73
  %35 = phi i64 [ 0, %26 ], [ %76, %73 ]
  %36 = phi i64 [ %27, %26 ], [ %74, %73 ]
  %37 = sub i64 %27, %35
  %38 = getelementptr [100 x i32], [100 x i32]* %3, i64 0, i64 %37
  %39 = getelementptr inbounds [100 x i32], [100 x i32]* %3, i64 0, i64 %36
  %40 = load i32, i32* %38, align 4
  br i1 %31, label %62, label %41

41:                                               ; preds = %34, %41
  %42 = phi i64 [ %59, %41 ], [ 0, %34 ]
  %43 = phi i64 [ %60, %41 ], [ %32, %34 ]
  %44 = getelementptr inbounds i32, i32* %39, i64 %42
  %45 = getelementptr inbounds i32, i32* %44, i64 1
  %46 = load i32, i32* %45, align 4, !tbaa !5
  store i32 %46, i32* %44, align 4, !tbaa !5
  store i32 %40, i32* %45, align 4, !tbaa !5
  %47 = or i64 %42, 1
  %48 = getelementptr inbounds i32, i32* %39, i64 %47
  %49 = getelementptr inbounds i32, i32* %48, i64 1
  %50 = load i32, i32* %49, align 4, !tbaa !5
  store i32 %50, i32* %48, align 4, !tbaa !5
  store i32 %40, i32* %49, align 4, !tbaa !5
  %51 = or i64 %42, 2
  %52 = getelementptr inbounds i32, i32* %39, i64 %51
  %53 = getelementptr inbounds i32, i32* %52, i64 1
  %54 = load i32, i32* %53, align 4, !tbaa !5
  store i32 %54, i32* %52, align 4, !tbaa !5
  store i32 %40, i32* %53, align 4, !tbaa !5
  %55 = or i64 %42, 3
  %56 = getelementptr inbounds i32, i32* %39, i64 %55
  %57 = getelementptr inbounds i32, i32* %56, i64 1
  %58 = load i32, i32* %57, align 4, !tbaa !5
  store i32 %58, i32* %56, align 4, !tbaa !5
  store i32 %40, i32* %57, align 4, !tbaa !5
  %59 = add nuw nsw i64 %42, 4
  %60 = add i64 %43, -4
  %61 = icmp eq i64 %60, 0
  br i1 %61, label %62, label %41, !llvm.loop !11

62:                                               ; preds = %41, %34
  %63 = phi i64 [ 0, %34 ], [ %59, %41 ]
  br i1 %33, label %73, label %64

64:                                               ; preds = %62, %64
  %65 = phi i64 [ %70, %64 ], [ %63, %62 ]
  %66 = phi i64 [ %71, %64 ], [ %30, %62 ]
  %67 = getelementptr inbounds i32, i32* %39, i64 %65
  %68 = getelementptr inbounds i32, i32* %67, i64 1
  %69 = load i32, i32* %68, align 4, !tbaa !5
  store i32 %69, i32* %67, align 4, !tbaa !5
  store i32 %40, i32* %68, align 4, !tbaa !5
  %70 = add nuw nsw i64 %65, 1
  %71 = add i64 %66, -1
  %72 = icmp eq i64 %71, 0
  br i1 %72, label %73, label %64, !llvm.loop !12

73:                                               ; preds = %64, %62
  %74 = add nsw i64 %36, -1
  %75 = icmp sgt i64 %36, 1
  %76 = add i64 %35, 1
  br i1 %75, label %34, label %77, !llvm.loop !14

77:                                               ; preds = %73, %19
  %78 = icmp slt i32 %20, 1
  br i1 %78, label %124, label %79

79:                                               ; preds = %77, %119
  %80 = phi i64 [ %120, %119 ], [ 1, %77 ]
  %81 = phi i32 [ %121, %119 ], [ %20, %77 ]
  %82 = sext i32 %81 to i64
  %83 = icmp slt i64 %80, %82
  %84 = getelementptr inbounds [100 x i32], [100 x i32]* %3, i64 0, i64 %80
  %85 = load i32, i32* %84, align 4, !tbaa !5
  %86 = call nonnull align 8 dereferenceable(8) %"class.std::basic_ostream"* @_ZNSolsEi(%"class.std::basic_ostream"* nonnull align 8 dereferenceable(8) @_ZSt4cout, i32 %85)
  br i1 %83, label %87, label %89

87:                                               ; preds = %79
  %88 = call nonnull align 8 dereferenceable(8) %"class.std::basic_ostream"* @_ZSt16__ostream_insertIcSt11char_traitsIcEERSt13basic_ostreamIT_T0_ES6_PKS3_l(%"class.std::basic_ostream"* nonnull align 8 dereferenceable(8) %86, i8* nonnull getelementptr inbounds ([2 x i8], [2 x i8]* @.str, i64 0, i64 0), i64 1)
  br label %119

89:                                               ; preds = %79
  %90 = bitcast %"class.std::basic_ostream"* %86 to i8**
  %91 = load i8*, i8** %90, align 8, !tbaa !15
  %92 = getelementptr i8, i8* %91, i64 -24
  %93 = bitcast i8* %92 to i64*
  %94 = load i64, i64* %93, align 8
  %95 = bitcast %"class.std::basic_ostream"* %86 to i8*
  %96 = add nsw i64 %94, 240
  %97 = getelementptr inbounds i8, i8* %95, i64 %96
  %98 = bitcast i8* %97 to %"class.std::ctype"**
  %99 = load %"class.std::ctype"*, %"class.std::ctype"** %98, align 8, !tbaa !17
  %100 = icmp eq %"class.std::ctype"* %99, null
  br i1 %100, label %101, label %102

101:                                              ; preds = %89
  call void @_ZSt16__throw_bad_castv() #8
  unreachable

102:                                              ; preds = %89
  %103 = getelementptr inbounds %"class.std::ctype", %"class.std::ctype"* %99, i64 0, i32 8
  %104 = load i8, i8* %103, align 8, !tbaa !21
  %105 = icmp eq i8 %104, 0
  br i1 %105, label %109, label %106

106:                                              ; preds = %102
  %107 = getelementptr inbounds %"class.std::ctype", %"class.std::ctype"* %99, i64 0, i32 9, i64 10
  %108 = load i8, i8* %107, align 1, !tbaa !23
  br label %115

109:                                              ; preds = %102
  call void @_ZNKSt5ctypeIcE13_M_widen_initEv(%"class.std::ctype"* nonnull align 8 dereferenceable(570) %99)
  %110 = bitcast %"class.std::ctype"* %99 to i8 (%"class.std::ctype"*, i8)***
  %111 = load i8 (%"class.std::ctype"*, i8)**, i8 (%"class.std::ctype"*, i8)*** %110, align 8, !tbaa !15
  %112 = getelementptr inbounds i8 (%"class.std::ctype"*, i8)*, i8 (%"class.std::ctype"*, i8)** %111, i64 6
  %113 = load i8 (%"class.std::ctype"*, i8)*, i8 (%"class.std::ctype"*, i8)** %112, align 8
  %114 = call signext i8 %113(%"class.std::ctype"* nonnull align 8 dereferenceable(570) %99, i8 signext 10)
  br label %115

115:                                              ; preds = %106, %109
  %116 = phi i8 [ %108, %106 ], [ %114, %109 ]
  %117 = call nonnull align 8 dereferenceable(8) %"class.std::basic_ostream"* @_ZNSo3putEc(%"class.std::basic_ostream"* nonnull align 8 dereferenceable(8) %86, i8 signext %116)
  %118 = call nonnull align 8 dereferenceable(8) %"class.std::basic_ostream"* @_ZNSo5flushEv(%"class.std::basic_ostream"* nonnull align 8 dereferenceable(8) %117)
  br label %119

119:                                              ; preds = %87, %115
  %120 = add nuw nsw i64 %80, 1
  %121 = load i32, i32* %2, align 4, !tbaa !5
  %122 = sext i32 %121 to i64
  %123 = icmp slt i64 %80, %122
  br i1 %123, label %79, label %124, !llvm.loop !24

124:                                              ; preds = %119, %77
  call void @llvm.lifetime.end.p0i8(i64 400, i8* nonnull %6) #7
  call void @llvm.lifetime.end.p0i8(i64 4, i8* nonnull %5) #7
  call void @llvm.lifetime.end.p0i8(i64 4, i8* nonnull %4) #7
  ret i32 0
}

; Function Attrs: argmemonly mustprogress nofree nosync nounwind willreturn
declare void @llvm.lifetime.start.p0i8(i64 immarg, i8* nocapture) #4

declare nonnull align 8 dereferenceable(16) %"class.std::basic_istream"* @_ZNSirsERi(%"class.std::basic_istream"* nonnull align 8 dereferenceable(16), i32* nonnull align 4 dereferenceable(4)) local_unnamed_addr #0

declare nonnull align 8 dereferenceable(8) %"class.std::basic_ostream"* @_ZNSolsEi(%"class.std::basic_ostream"* nonnull align 8 dereferenceable(8), i32) local_unnamed_addr #0

; Function Attrs: argmemonly mustprogress nofree nosync nounwind willreturn
declare void @llvm.lifetime.end.p0i8(i64 immarg, i8* nocapture) #4

declare nonnull align 8 dereferenceable(8) %"class.std::basic_ostream"* @_ZSt16__ostream_insertIcSt11char_traitsIcEERSt13basic_ostreamIT_T0_ES6_PKS3_l(%"class.std::basic_ostream"* nonnull align 8 dereferenceable(8), i8*, i64) local_unnamed_addr #0

declare nonnull align 8 dereferenceable(8) %"class.std::basic_ostream"* @_ZNSo3putEc(%"class.std::basic_ostream"* nonnull align 8 dereferenceable(8), i8 signext) local_unnamed_addr #0

declare nonnull align 8 dereferenceable(8) %"class.std::basic_ostream"* @_ZNSo5flushEv(%"class.std::basic_ostream"* nonnull align 8 dereferenceable(8)) local_unnamed_addr #0

; Function Attrs: noreturn
declare void @_ZSt16__throw_bad_castv() local_unnamed_addr #5

declare void @_ZNKSt5ctypeIcE13_M_widen_initEv(%"class.std::ctype"* nonnull align 8 dereferenceable(570)) local_unnamed_addr #0

; Function Attrs: sspstrong uwtable
define internal void @_GLOBAL__sub_I_5027.cpp() #6 section ".text.startup" {
  tail call void @_ZNSt8ios_base4InitC1Ev(%"class.std::ios_base::Init"* nonnull align 1 dereferenceable(1) @_ZStL8__ioinit)
  %1 = tail call i32 @__cxa_atexit(void (i8*)* bitcast (void (%"class.std::ios_base::Init"*)* @_ZNSt8ios_base4InitD1Ev to void (i8*)*), i8* getelementptr inbounds (%"class.std::ios_base::Init", %"class.std::ios_base::Init"* @_ZStL8__ioinit, i64 0, i32 0), i8* nonnull @__dso_handle) #7
  ret void
}


!llvm.module.flags = !{!0, !1, !2, !3}
!llvm.ident = !{!4}

!0 = !{i32 1, !"wchar_size", i32 4}
!1 = !{i32 7, !"PIC Level", i32 2}
!2 = !{i32 7, !"PIE Level", i32 2}
!3 = !{i32 7, !"uwtable", i32 1}
!4 = !{!"clang version 13.0.0"}
!5 = !{!6, !6, i64 0}
!6 = !{!"int", !7, i64 0}
!7 = !{!"omnipotent char", !8, i64 0}
!8 = !{!"Simple C++ TBAA"}
!9 = distinct !{!9, !10}
!10 = !{!"llvm.loop.mustprogress"}
!11 = distinct !{!11, !10}
!12 = distinct !{!12, !13}
!13 = !{!"llvm.loop.unroll.disable"}
!14 = distinct !{!14, !10}
!15 = !{!16, !16, i64 0}
!16 = !{!"vtable pointer", !8, i64 0}
!17 = !{!18, !19, i64 240}
!18 = !{!"_ZTSSt9basic_iosIcSt11char_traitsIcEE", !19, i64 216, !7, i64 224, !20, i64 225, !19, i64 232, !19, i64 240, !19, i64 248, !19, i64 256}
!19 = !{!"any pointer", !7, i64 0}
!20 = !{!"bool", !7, i64 0}
!21 = !{!22, !7, i64 56}
!22 = !{!"_ZTSSt5ctypeIcE", !19, i64 16, !20, i64 24, !19, i64 32, !19, i64 40, !19, i64 48, !7, i64 56, !7, i64 57, !7, i64 313, !7, i64 569}
!23 = !{!7, !7, i64 0}
!24 = distinct !{!24, !10}
